; Function Attrs: nofree nounwind uwtable
define void @N_VPrintFile_Serial(ptr noundef readonly captures(none) %0, ptr noundef captures(none) %1) #11 {
  %3 = load ptr, ptr %0, align 8, !tbaa !54
  %4 = load i64, ptr %3, align 8, !tbaa !55
  %5 = getelementptr inbounds nuw i8, ptr %3, i64 16
  %6 = load ptr, ptr %5, align 8, !tbaa !61
  %7 = icmp sgt i64 %4, 0
  br i1 %7, label %.lr.ph, label %._crit_edge

.lr.ph:                                           ; preds = %2, %.lr.ph
  %.08 = phi i64 [ %11, %.lr.ph ], [ 0, %2 ]
  %8 = getelementptr inbounds nuw double, ptr %6, i64 %.08
  %9 = load double, ptr %8, align 8, !tbaa !64
  %10 = tail call i32 (ptr, ptr, ...) @fprintf(ptr noundef %1, ptr noundef nonnull @.str, double noundef %9) #20
  %11 = add nuw nsw i64 %.08, 1
  %exitcond.not = icmp eq i64 %11, %4
  br i1 %exitcond.not, label %._crit_edge, label %.lr.ph

._crit_edge:                                      ; preds = %.lr.ph, %2
  %fputc = tail call i32 @fputc(i32 10, ptr %1)
  ret void
}